; ModuleID = '21/1852.c'
source_filename = "21/1852.c"
target datalayout = "e-m:e-p270:32:32-p271:32:32-p272:64:64-i64:64-f80:128-n8:16:32:64-S128"
target triple = "x86_64-pc-linux-gnu"

@.str = private unnamed_addr constant [3 x i8] c"%d\00", align 1
@.str.1 = private unnamed_addr constant [3 x i8] c"%f\00", align 1
@.str.2 = private unnamed_addr constant [10 x i8] c"%.0f,%.0f\00", align 1
@.str.3 = private unnamed_addr constant [5 x i8] c"%.0f\00", align 1

; Function Attrs: noinline nounwind uwtable
define dso_local void @main() #0 {
  %1 = alloca i32, align 4
  %2 = alloca [1000 x float], align 16
  %3 = alloca float, align 4
  %4 = alloca float, align 4
  %5 = alloca float, align 4
  %6 = alloca float, align 4
  %7 = alloca i32, align 4
  store float 0.000000e+00, float* %6, align 4
  %8 = call i32 (i8*, ...) @__isoc99_scanf(i8* getelementptr inbounds ([3 x i8], [3 x i8]* @.str, i64 0, i64 0), i32* %1)
  store i32 0, i32* %7, align 4
  br label %9

9:                                                ; preds = %18, %0
  %10 = load i32, i32* %7, align 4
  %11 = load i32, i32* %1, align 4
  %12 = icmp slt i32 %10, %11
  br i1 %12, label %13, label %21

13:                                               ; preds = %9
  %14 = load i32, i32* %7, align 4
  %15 = sext i32 %14 to i64
  %16 = getelementptr inbounds [1000 x float], [1000 x float]* %2, i64 0, i64 %15
  %17 = call i32 (i8*, ...) @__isoc99_scanf(i8* getelementptr inbounds ([3 x i8], [3 x i8]* @.str.1, i64 0, i64 0), float* %16)
  br label %18

18:                                               ; preds = %13
  %19 = load i32, i32* %7, align 4
  %20 = add nsw i32 %19, 1
  store i32 %20, i32* %7, align 4
  br label %9

21:                                               ; preds = %9
  %22 = getelementptr inbounds [1000 x float], [1000 x float]* %2, i64 0, i64 0
  %23 = load i32, i32* %1, align 4
  call void @f1(float* %22, i32 %23)
  store i32 0, i32* %7, align 4
  br label %24

24:                                               ; preds = %35, %21
  %25 = load i32, i32* %7, align 4
  %26 = load i32, i32* %1, align 4
  %27 = icmp slt i32 %25, %26
  br i1 %27, label %28, label %38

28:                                               ; preds = %24
  %29 = load float, float* %6, align 4
  %30 = load i32, i32* %7, align 4
  %31 = sext i32 %30 to i64
  %32 = getelementptr inbounds [1000 x float], [1000 x float]* %2, i64 0, i64 %31
  %33 = load float, float* %32, align 4
  %34 = fadd float %29, %33
  store float %34, float* %6, align 4
  br label %35

35:                                               ; preds = %28
  %36 = load i32, i32* %7, align 4
  %37 = add nsw i32 %36, 1
  store i32 %37, i32* %7, align 4
  br label %24

38:                                               ; preds = %24
  %39 = load float, float* %6, align 4
  %40 = load i32, i32* %1, align 4
  %41 = sitofp i32 %40 to float
  %42 = fdiv float %39, %41
  store float %42, float* %3, align 4
  %43 = getelementptr inbounds [1000 x float], [1000 x float]* %2, i64 0, i64 0
  %44 = load float, float* %43, align 16
  %45 = load float, float* %3, align 4
  %46 = fsub float %44, %45
  store float %46, float* %4, align 4
  %47 = load float, float* %3, align 4
  %48 = load i32, i32* %1, align 4
  %49 = sub nsw i32 %48, 1
  %50 = sext i32 %49 to i64
  %51 = getelementptr inbounds [1000 x float], [1000 x float]* %2, i64 0, i64 %50
  %52 = load float, float* %51, align 4
  %53 = fsub float %47, %52
  store float %53, float* %5, align 4
  %54 = load float, float* %4, align 4
  %55 = load float, float* %5, align 4
  %56 = fcmp oeq float %54, %55
  br i1 %56, label %57, label %68

57:                                               ; preds = %38
  %58 = load i32, i32* %1, align 4
  %59 = sub nsw i32 %58, 1
  %60 = sext i32 %59 to i64
  %61 = getelementptr inbounds [1000 x float], [1000 x float]* %2, i64 0, i64 %60
  %62 = load float, float* %61, align 4
  %63 = fpext float %62 to double
  %64 = getelementptr inbounds [1000 x float], [1000 x float]* %2, i64 0, i64 0
  %65 = load float, float* %64, align 16
  %66 = fpext float %65 to double
  %67 = call i32 (i8*, ...) @printf(i8* getelementptr inbounds ([10 x i8], [10 x i8]* @.str.2, i64 0, i64 0), double %63, double %66)
  br label %86

68:                                               ; preds = %38
  %69 = load float, float* %4, align 4
  %70 = load float, float* %5, align 4
  %71 = fcmp ogt float %69, %70
  br i1 %71, label %72, label %77

72:                                               ; preds = %68
  %73 = getelementptr inbounds [1000 x float], [1000 x float]* %2, i64 0, i64 0
  %74 = load float, float* %73, align 16
  %75 = fpext float %74 to double
  %76 = call i32 (i8*, ...) @printf(i8* getelementptr inbounds ([5 x i8], [5 x i8]* @.str.3, i64 0, i64 0), double %75)
  br label %85

77:                                               ; preds = %68
  %78 = load i32, i32* %1, align 4
  %79 = sub nsw i32 %78, 1
  %80 = sext i32 %79 to i64
  %81 = getelementptr inbounds [1000 x float], [1000 x float]* %2, i64 0, i64 %80
  %82 = load float, float* %81, align 4
  %83 = fpext float %82 to double
  %84 = call i32 (i8*, ...) @printf(i8* getelementptr inbounds ([5 x i8], [5 x i8]* @.str.3, i64 0, i64 0), double %83)
  br label %85

85:                                               ; preds = %77, %72
  br label %86

86:                                               ; preds = %85, %57
  ret void
}

declare dso_local i32 @__isoc99_scanf(i8*, ...) #1

; Function Attrs: noinline nounwind uwtable
define dso_local void @f1(float* %0, i32 %1) #0 {
  %3 = alloca float*, align 8
  %4 = alloca i32, align 4
  %5 = alloca i32, align 4
  %6 = alloca i32, align 4
  %7 = alloca float, align 4
  store float* %0, float** %3, align 8
  store i32 %1, i32* %4, align 4
  store i32 0, i32* %5, align 4
  br label %8

8:                                                ; preds = %59, %2
  %9 = load i32, i32* %5, align 4
  %10 = load i32, i32* %4, align 4
  %11 = sub nsw i32 %10, 1
  %12 = icmp slt i32 %9, %11
  br i1 %12, label %13, label %62

13:                                               ; preds = %8
  store i32 0, i32* %6, align 4
  br label %14

14:                                               ; preds = %55, %13
  %15 = load i32, i32* %6, align 4
  %16 = load i32, i32* %4, align 4
  %17 = sub nsw i32 %16, 1
  %18 = icmp slt i32 %15, %17
  br i1 %18, label %19, label %58

19:                                               ; preds = %14
  %20 = load float*, float** %3, align 8
  %21 = load i32, i32* %6, align 4
  %22 = sext i32 %21 to i64
  %23 = getelementptr inbounds float, float* %20, i64 %22
  %24 = load float, float* %23, align 4
  %25 = load float*, float** %3, align 8
  %26 = load i32, i32* %6, align 4
  %27 = add nsw i32 %26, 1
  %28 = sext i32 %27 to i64
  %29 = getelementptr inbounds float, float* %25, i64 %28
  %30 = load float, float* %29, align 4
  %31 = fcmp olt float %24, %30
  br i1 %31, label %32, label %54

32:                                               ; preds = %19
  %33 = load float*, float** %3, align 8
  %34 = load i32, i32* %6, align 4
  %35 = sext i32 %34 to i64
  %36 = getelementptr inbounds float, float* %33, i64 %35
  %37 = load float, float* %36, align 4
  store float %37, float* %7, align 4
  %38 = load float*, float** %3, align 8
  %39 = load i32, i32* %6, align 4
  %40 = add nsw i32 %39, 1
  %41 = sext i32 %40 to i64
  %42 = getelementptr inbounds float, float* %38, i64 %41
  %43 = load float, float* %42, align 4
  %44 = load float*, float** %3, align 8
  %45 = load i32, i32* %6, align 4
  %46 = sext i32 %45 to i64
  %47 = getelementptr inbounds float, float* %44, i64 %46
  store float %43, float* %47, align 4
  %48 = load float, float* %7, align 4
  %49 = load float*, float** %3, align 8
  %50 = load i32, i32* %6, align 4
  %51 = add nsw i32 %50, 1
  %52 = sext i32 %51 to i64
  %53 = getelementptr inbounds float, float* %49, i64 %52
  store float %48, float* %53, align 4
  br label %54

54:                                               ; preds = %32, %19
  br label %55

55:                                               ; preds = %54
  %56 = load i32, i32* %6, align 4
  %57 = add nsw i32 %56, 1
  store i32 %57, i32* %6, align 4
  br label %14

58:                                               ; preds = %14
  br label %59

59:                                               ; preds = %58
  %60 = load i32, i32* %5, align 4
  %61 = add nsw i32 %60, 1
  store i32 %61, i32* %5, align 4
  br label %8

62:                                               ; preds = %8
  ret void
}

declare dso_local i32 @printf(i8*, ...) #1


!llvm.module.flags = !{!0}
!llvm.ident = !{!1}

!0 = !{i32 1, !"wchar_size", i32 4}
!1 = !{!"clang version 10.0.0-4ubuntu1 "}
